target datalayout = "e-m:e-p270:32:32-p271:32:32-p272:64:64-i64:64-i128:128-f80:128-n8:16:32:64-S128"
target triple = "x86_64-pc-linux-gnu"

%"class.absl::CordzSamplingIntervalHelper" = type { i32 }
%"class.absl::(anonymous namespace)::CordzStringTest" = type <{ %"class.testing::TestWithParam", %"class.absl::CordzSamplingIntervalHelper", [4 x i8] }>
%"class.testing::TestWithParam" = type { %"class.testing::Test", %"class.testing::WithParamInterface" }
%"class.testing::Test" = type { ptr, %"class.std::unique_ptr.76" }
%"class.std::unique_ptr.76" = type { %"struct.std::__uniq_ptr_data.77" }
%"struct.std::__uniq_ptr_data.77" = type { %"class.std::__uniq_ptr_impl.78" }
%"class.std::__uniq_ptr_impl.78" = type { %"class.std::tuple.79" }
%"class.std::tuple.79" = type { %"struct.std::_Tuple_impl.80" }
%"struct.std::_Tuple_impl.80" = type { %"struct.std::_Head_base.83" }
%"struct.std::_Head_base.83" = type { ptr }
%"class.testing::WithParamInterface" = type { ptr }

; Function Attrs: mustprogress nounwind uwtable
define linkonce_odr dso_local void @_ZN7testing18WithParamInterfaceIN4absl12TestCordSizeEED2Ev(ptr noundef nonnull align 8 dereferenceable(8) %0) unnamed_addr #6 comdat align 2 {
  %2 = alloca ptr, align 8
  store ptr %0, ptr %2, align 8, !tbaa !651
  ret void
}

; Function Attrs: inlinehint mustprogress nounwind uwtable
define linkonce_odr dso_local void @_ZN7testing13TestWithParamIN4absl12TestCordSizeEED2Ev(ptr noundef nonnull align 8 dereferenceable(24) %0) unnamed_addr #7 comdat align 2 {
  %2 = alloca ptr, align 8
  store ptr %0, ptr %2, align 8, !tbaa !649
  %3 = load ptr, ptr %2, align 8
  %4 = getelementptr inbounds i8, ptr %3, i64 16
  call void @_ZN7testing18WithParamInterfaceIN4absl12TestCordSizeEED2Ev(ptr noundef nonnull align 8 dereferenceable(8) %4) #3
  call void @_ZN7testing4TestD2Ev(ptr noundef nonnull align 8 dereferenceable(16) %3) #3
  ret void
}

; Function Attrs: mustprogress nounwind uwtable
define linkonce_odr dso_local void @_ZN4absl27CordzSamplingIntervalHelperD2Ev(ptr noundef nonnull align 4 dereferenceable(4) %0) unnamed_addr #6 comdat align 2 personality ptr @__gxx_personality_v0 {
  %2 = alloca ptr, align 8
  store ptr %0, ptr %2, align 8, !tbaa !295
  %3 = load ptr, ptr %2, align 8
  %4 = getelementptr inbounds nuw %"class.absl::CordzSamplingIntervalHelper", ptr %3, i32 0, i32 0
  %5 = load i32, ptr %4, align 4, !tbaa !297
  invoke void @_ZN4absl13cord_internal23set_cordz_mean_intervalEi(i32 noundef %5)
          to label %6 unwind label %11

6:                                                ; preds = %1
  %7 = getelementptr inbounds nuw %"class.absl::CordzSamplingIntervalHelper", ptr %3, i32 0, i32 0
  %8 = load i32, ptr %7, align 4, !tbaa !297
  %9 = sext i32 %8 to i64
  invoke void @_ZN4absl13cord_internal33cordz_set_next_sample_for_testingEl(i64 noundef %9)
          to label %10 unwind label %11

10:                                               ; preds = %6
  ret void

11:                                               ; preds = %6, %1
  %12 = landingpad { ptr, i32 }
          catch ptr null
  %13 = extractvalue { ptr, i32 } %12, 0
  call void @__clang_call_terminate(ptr %13) #30
  unreachable
}

; Function Attrs: inlinehint mustprogress nounwind uwtable
define internal void @_ZN4absl12_GLOBAL__N_115CordzStringTestD2Ev(ptr noundef nonnull align 8 dereferenceable(28) %0) unnamed_addr #7 align 2 {
  %2 = alloca ptr, align 8
  store ptr %0, ptr %2, align 8, !tbaa !647
  %3 = load ptr, ptr %2, align 8
  store ptr getelementptr inbounds inrange(-16, 48) ({ [8 x ptr], [4 x ptr] }, ptr @_ZTVN4absl12_GLOBAL__N_115CordzStringTestE, i32 0, i32 0, i32 2), ptr %3, align 8, !tbaa !25
  %4 = getelementptr inbounds i8, ptr %3, i64 16
  store ptr getelementptr inbounds inrange(-16, 16) ({ [8 x ptr], [4 x ptr] }, ptr @_ZTVN4absl12_GLOBAL__N_115CordzStringTestE, i32 0, i32 1, i32 2), ptr %4, align 8, !tbaa !25
  %5 = getelementptr inbounds nuw %"class.absl::(anonymous namespace)::CordzStringTest", ptr %3, i32 0, i32 1
  call void @_ZN4absl27CordzSamplingIntervalHelperD2Ev(ptr noundef nonnull align 4 dereferenceable(4) %5) #3
  call void @_ZN7testing13TestWithParamIN4absl12TestCordSizeEED2Ev(ptr noundef nonnull align 8 dereferenceable(24) %3) #3
  ret void
}

; Function Attrs: inlinehint mustprogress nounwind uwtable
define internal void @_ZN4absl12_GLOBAL__N_139CordzStringTest_AssignStringToCord_TestD0Ev(ptr noundef nonnull align 8 dereferenceable(28) %0) unnamed_addr #7 align 2 {
  %2 = alloca ptr, align 8
  store ptr %0, ptr %2, align 8, !tbaa !891
  %3 = load ptr, ptr %2, align 8
  call void @_ZN4absl12_GLOBAL__N_115CordzStringTestD2Ev(ptr noundef nonnull align 8 dereferenceable(28) %3) #3
  call void @_ZdlPvm(ptr noundef %3, i64 noundef 32) #29
  ret void
}

; Function Attrs: inlinehint nounwind uwtable
define internal void @_ZThn16_N4absl12_GLOBAL__N_139CordzStringTest_AssignStringToCord_TestD0Ev(ptr noundef %0) unnamed_addr #22 align 2 {
  %2 = alloca ptr, align 8
  store ptr %0, ptr %2, align 8, !tbaa !891
  %3 = load ptr, ptr %2, align 8
  %4 = getelementptr inbounds i8, ptr %3, i64 -16
  tail call void @_ZN4absl12_GLOBAL__N_139CordzStringTest_AssignStringToCord_TestD0Ev(ptr noundef nonnull align 8 dereferenceable(28) %4) #3
  ret void
}